target datalayout = "e-m:e-p270:32:32-p271:32:32-p272:64:64-i64:64-i128:128-f80:128-n8:16:32:64-S128"
target triple = "x86_64-pc-linux-gnu"

%struct.NAME_CONSTRAINTS_st = type { ptr, ptr }
%struct.GENERAL_NAME_st = type { i32, %union.anon }
%union.anon = type { ptr }
%struct.x509_st = type { %struct.x509_cinf_st, %struct.X509_algor_st, %struct.asn1_string_st, %struct.x509_sig_info_st, %struct.CRYPTO_REF_COUNT, %struct.crypto_ex_data_st, i64, i64, i32, i32, i32, i32, ptr, ptr, ptr, ptr, ptr, ptr, ptr, ptr, [20 x i8], ptr, ptr, i32, ptr, ptr, ptr }
%struct.x509_cinf_st = type { ptr, %struct.asn1_string_st, %struct.X509_algor_st, ptr, %struct.X509_val_st, ptr, ptr, ptr, ptr, ptr, %struct.ASN1_ENCODING_st }
%struct.X509_val_st = type { ptr, ptr }
%struct.ASN1_ENCODING_st = type { ptr, i64, i32 }
%struct.X509_algor_st = type { ptr, ptr }
%struct.asn1_string_st = type { i32, i32, ptr, i64 }
%struct.x509_sig_info_st = type { i32, i32, i32, i32 }
%struct.CRYPTO_REF_COUNT = type { i32 }
%struct.crypto_ex_data_st = type { ptr, ptr }

; Function Attrs: inlinehint nounwind uwtable
define internal i32 @safe_add_int(i32 noundef %0, i32 noundef %1, ptr noundef %2) #3 {
  %4 = alloca i32, align 4
  %5 = alloca i32, align 4
  %6 = alloca i32, align 4
  %7 = alloca ptr, align 8
  %8 = alloca i32, align 4
  %9 = alloca i32, align 4
  store i32 %0, ptr %5, align 4, !tbaa !18
  store i32 %1, ptr %6, align 4, !tbaa !18
  store ptr %2, ptr %7, align 8, !tbaa !74
  call void @llvm.lifetime.start.p0(i64 4, ptr %8) #6
  %10 = load i32, ptr %5, align 4, !tbaa !18
  %11 = load i32, ptr %6, align 4, !tbaa !18
  %12 = call { i32, i1 } @llvm.sadd.with.overflow.i32(i32 %10, i32 %11)
  %13 = extractvalue { i32, i1 } %12, 1
  %14 = extractvalue { i32, i1 } %12, 0
  store i32 %14, ptr %8, align 4
  br i1 %13, label %17, label %15

15:                                               ; preds = %3
  %16 = load i32, ptr %8, align 4, !tbaa !18
  store i32 %16, ptr %4, align 4
  store i32 1, ptr %9, align 4
  br label %24

17:                                               ; preds = %3
  %18 = load ptr, ptr %7, align 8, !tbaa !74
  %19 = load i32, ptr %18, align 4, !tbaa !18
  %20 = or i32 %19, 1
  store i32 %20, ptr %18, align 4, !tbaa !18
  %21 = load i32, ptr %5, align 4, !tbaa !18
  %22 = icmp slt i32 %21, 0
  %23 = select i1 %22, i32 -2147483648, i32 2147483647
  store i32 %23, ptr %4, align 4
  store i32 1, ptr %9, align 4
  br label %24

24:                                               ; preds = %17, %15
  call void @llvm.lifetime.end.p0(i64 4, ptr %8) #6
  %25 = load i32, ptr %4, align 4
  ret i32 %25
}

; Function Attrs: inlinehint nounwind uwtable
define internal ptr @ossl_check_const_GENERAL_SUBTREE_sk_type(ptr noundef %0) #3 {
  %2 = alloca ptr, align 8
  store ptr %0, ptr %2, align 8, !tbaa !30
  %3 = load ptr, ptr %2, align 8, !tbaa !30
  ret ptr %3
}

; Function Attrs: nounwind uwtable
define internal i32 @add_lengths(ptr noundef %0, i32 noundef %1, i32 noundef %2) #0 {
  %4 = alloca ptr, align 8
  %5 = alloca i32, align 4
  %6 = alloca i32, align 4
  %7 = alloca i32, align 4
  store ptr %0, ptr %4, align 8, !tbaa !74
  store i32 %1, ptr %5, align 4, !tbaa !18
  store i32 %2, ptr %6, align 4, !tbaa !18
  call void @llvm.lifetime.start.p0(i64 4, ptr %7) #6
  store i32 0, ptr %7, align 4, !tbaa !18
  %8 = load i32, ptr %5, align 4, !tbaa !18
  %9 = icmp slt i32 %8, 0
  br i1 %9, label %10, label %11

10:                                               ; preds = %3
  store i32 0, ptr %5, align 4, !tbaa !18
  br label %11

11:                                               ; preds = %10, %3
  %12 = load i32, ptr %6, align 4, !tbaa !18
  %13 = icmp slt i32 %12, 0
  br i1 %13, label %14, label %15

14:                                               ; preds = %11
  store i32 0, ptr %6, align 4, !tbaa !18
  br label %15

15:                                               ; preds = %14, %11
  %16 = load i32, ptr %5, align 4, !tbaa !18
  %17 = load i32, ptr %6, align 4, !tbaa !18
  %18 = call i32 @safe_add_int(i32 noundef %16, i32 noundef %17, ptr noundef %7)
  %19 = load ptr, ptr %4, align 8, !tbaa !74
  store i32 %18, ptr %19, align 4, !tbaa !18
  %20 = load i32, ptr %7, align 4, !tbaa !18
  %21 = icmp ne i32 %20, 0
  %22 = xor i1 %21, true
  %23 = zext i1 %22 to i32
  call void @llvm.lifetime.end.p0(i64 4, ptr %7) #6
  ret i32 %23
}

; Function Attrs: inlinehint nounwind uwtable
define internal ptr @ossl_check_const_GENERAL_NAME_sk_type(ptr noundef %0) #3 {
  %2 = alloca ptr, align 8
  store ptr %0, ptr %2, align 8, !tbaa !76
  %3 = load ptr, ptr %2, align 8, !tbaa !76
  ret ptr %3
}

; Function Attrs: nounwind uwtable
define i32 @NAME_CONSTRAINTS_check(ptr noundef %0, ptr noundef %1) #0 {
  %3 = alloca i32, align 4
  %4 = alloca ptr, align 8
  %5 = alloca ptr, align 8
  %6 = alloca i32, align 4
  %7 = alloca i32, align 4
  %8 = alloca i32, align 4
  %9 = alloca i32, align 4
  %10 = alloca ptr, align 8
  %11 = alloca i32, align 4
  %12 = alloca %struct.GENERAL_NAME_st, align 8
  %13 = alloca ptr, align 8
  %14 = alloca ptr, align 8
  store ptr %0, ptr %4, align 8, !tbaa !39
  store ptr %1, ptr %5, align 8, !tbaa !14
  call void @llvm.lifetime.start.p0(i64 4, ptr %6) #6
  call void @llvm.lifetime.start.p0(i64 4, ptr %7) #6
  call void @llvm.lifetime.start.p0(i64 4, ptr %8) #6
  call void @llvm.lifetime.start.p0(i64 4, ptr %9) #6
  call void @llvm.lifetime.start.p0(i64 8, ptr %10) #6
  %15 = load ptr, ptr %4, align 8, !tbaa !39
  %16 = call ptr @X509_get_subject_name(ptr noundef %15)
  store ptr %16, ptr %10, align 8, !tbaa !41
  %17 = load ptr, ptr %10, align 8, !tbaa !41
  %18 = call i32 @X509_NAME_entry_count(ptr noundef %17)
  %19 = load ptr, ptr %4, align 8, !tbaa !39
  %20 = getelementptr inbounds nuw %struct.x509_st, ptr %19, i32 0, i32 16
  %21 = load ptr, ptr %20, align 8, !tbaa !43
  %22 = call ptr @ossl_check_const_GENERAL_NAME_sk_type(ptr noundef %21)
  %23 = call i32 @OPENSSL_sk_num(ptr noundef %22)
  %24 = call i32 @add_lengths(ptr noundef %8, i32 noundef %18, i32 noundef %23)
  %25 = icmp ne i32 %24, 0
  br i1 %25, label %26, label %47

26:                                               ; preds = %2
  %27 = load ptr, ptr %5, align 8, !tbaa !14
  %28 = getelementptr inbounds nuw %struct.NAME_CONSTRAINTS_st, ptr %27, i32 0, i32 0
  %29 = load ptr, ptr %28, align 8, !tbaa !36
  %30 = call ptr @ossl_check_const_GENERAL_SUBTREE_sk_type(ptr noundef %29)
  %31 = call i32 @OPENSSL_sk_num(ptr noundef %30)
  %32 = load ptr, ptr %5, align 8, !tbaa !14
  %33 = getelementptr inbounds nuw %struct.NAME_CONSTRAINTS_st, ptr %32, i32 0, i32 1
  %34 = load ptr, ptr %33, align 8, !tbaa !38
  %35 = call ptr @ossl_check_const_GENERAL_SUBTREE_sk_type(ptr noundef %34)
  %36 = call i32 @OPENSSL_sk_num(ptr noundef %35)
  %37 = call i32 @add_lengths(ptr noundef %9, i32 noundef %31, i32 noundef %36)
  %38 = icmp ne i32 %37, 0
  br i1 %38, label %39, label %47

39:                                               ; preds = %26
  %40 = load i32, ptr %8, align 4, !tbaa !18
  %41 = icmp sgt i32 %40, 0
  br i1 %41, label %42, label %48

42:                                               ; preds = %39
  %43 = load i32, ptr %9, align 4, !tbaa !18
  %44 = load i32, ptr %8, align 4, !tbaa !18
  %45 = sdiv i32 1048576, %44
  %46 = icmp sgt i32 %43, %45
  br i1 %46, label %47, label %48

47:                                               ; preds = %42, %26, %2
  store i32 1, ptr %3, align 4
  store i32 1, ptr %11, align 4
  br label %130

48:                                               ; preds = %42, %39
  %49 = load ptr, ptr %10, align 8, !tbaa !41
  %50 = call i32 @X509_NAME_entry_count(ptr noundef %49)
  %51 = icmp sgt i32 %50, 0
  br i1 %51, label %52, label %99

52:                                               ; preds = %48
  call void @llvm.lifetime.start.p0(i64 16, ptr %12) #6
  %53 = getelementptr inbounds nuw %struct.GENERAL_NAME_st, ptr %12, i32 0, i32 0
  store i32 4, ptr %53, align 8, !tbaa !67
  %54 = load ptr, ptr %10, align 8, !tbaa !41
  %55 = getelementptr inbounds nuw %struct.GENERAL_NAME_st, ptr %12, i32 0, i32 1
  store ptr %54, ptr %55, align 8, !tbaa !24
  %56 = load ptr, ptr %5, align 8, !tbaa !14
  %57 = call i32 @nc_match(ptr noundef %12, ptr noundef %56)
  store i32 %57, ptr %6, align 4, !tbaa !18
  %58 = load i32, ptr %6, align 4, !tbaa !18
  %59 = icmp ne i32 %58, 0
  br i1 %59, label %60, label %62

60:                                               ; preds = %52
  %61 = load i32, ptr %6, align 4, !tbaa !18
  store i32 %61, ptr %3, align 4
  store i32 1, ptr %11, align 4
  br label %96

62:                                               ; preds = %52
  %63 = getelementptr inbounds nuw %struct.GENERAL_NAME_st, ptr %12, i32 0, i32 0
  store i32 1, ptr %63, align 8, !tbaa !67
  store i32 -1, ptr %7, align 4, !tbaa !18
  br label %64

64:                                               ; preds = %94, %62
  call void @llvm.lifetime.start.p0(i64 8, ptr %13) #6
  %65 = load ptr, ptr %10, align 8, !tbaa !41
  %66 = load i32, ptr %7, align 4, !tbaa !18
  %67 = call i32 @X509_NAME_get_index_by_NID(ptr noundef %65, i32 noundef 48, i32 noundef %66)
  store i32 %67, ptr %7, align 4, !tbaa !18
  %68 = load i32, ptr %7, align 4, !tbaa !18
  %69 = icmp eq i32 %68, -1
  br i1 %69, label %70, label %71

70:                                               ; preds = %64
  store i32 2, ptr %11, align 4
  br label %92

71:                                               ; preds = %64
  %72 = load ptr, ptr %10, align 8, !tbaa !41
  %73 = load i32, ptr %7, align 4, !tbaa !18
  %74 = call ptr @X509_NAME_get_entry(ptr noundef %72, i32 noundef %73)
  store ptr %74, ptr %13, align 8, !tbaa !69
  %75 = load ptr, ptr %13, align 8, !tbaa !69
  %76 = call ptr @X509_NAME_ENTRY_get_data(ptr noundef %75)
  %77 = getelementptr inbounds nuw %struct.GENERAL_NAME_st, ptr %12, i32 0, i32 1
  store ptr %76, ptr %77, align 8, !tbaa !24
  %78 = getelementptr inbounds nuw %struct.GENERAL_NAME_st, ptr %12, i32 0, i32 1
  %79 = load ptr, ptr %78, align 8, !tbaa !24
  %80 = getelementptr inbounds nuw %struct.asn1_string_st, ptr %79, i32 0, i32 1
  %81 = load i32, ptr %80, align 4, !tbaa !71
  %82 = icmp ne i32 %81, 22
  br i1 %82, label %83, label %84

83:                                               ; preds = %71
  store i32 53, ptr %3, align 4
  store i32 1, ptr %11, align 4
  br label %92

84:                                               ; preds = %71
  %85 = load ptr, ptr %5, align 8, !tbaa !14
  %86 = call i32 @nc_match(ptr noundef %12, ptr noundef %85)
  store i32 %86, ptr %6, align 4, !tbaa !18
  %87 = load i32, ptr %6, align 4, !tbaa !18
  %88 = icmp ne i32 %87, 0
  br i1 %88, label %89, label %91

89:                                               ; preds = %84
  %90 = load i32, ptr %6, align 4, !tbaa !18
  store i32 %90, ptr %3, align 4
  store i32 1, ptr %11, align 4
  br label %92

91:                                               ; preds = %84
  store i32 0, ptr %11, align 4
  br label %92

92:                                               ; preds = %91, %89, %83, %70
  call void @llvm.lifetime.end.p0(i64 8, ptr %13) #6
  %93 = load i32, ptr %11, align 4
  switch i32 %93, label %96 [
    i32 0, label %94
    i32 2, label %95
  ]

94:                                               ; preds = %92
  br label %64

95:                                               ; preds = %92
  store i32 0, ptr %11, align 4
  br label %96

96:                                               ; preds = %95, %92, %60
  call void @llvm.lifetime.end.p0(i64 16, ptr %12) #6
  %97 = load i32, ptr %11, align 4
  switch i32 %97, label %130 [
    i32 0, label %98
  ]

98:                                               ; preds = %96
  br label %99

99:                                               ; preds = %98, %48
  store i32 0, ptr %7, align 4, !tbaa !18
  br label %100

100:                                              ; preds = %126, %99
  %101 = load i32, ptr %7, align 4, !tbaa !18
  %102 = load ptr, ptr %4, align 8, !tbaa !39
  %103 = getelementptr inbounds nuw %struct.x509_st, ptr %102, i32 0, i32 16
  %104 = load ptr, ptr %103, align 8, !tbaa !43
  %105 = call ptr @ossl_check_const_GENERAL_NAME_sk_type(ptr noundef %104)
  %106 = call i32 @OPENSSL_sk_num(ptr noundef %105)
  %107 = icmp slt i32 %101, %106
  br i1 %107, label %108, label %129

108:                                              ; preds = %100
  call void @llvm.lifetime.start.p0(i64 8, ptr %14) #6
  %109 = load ptr, ptr %4, align 8, !tbaa !39
  %110 = getelementptr inbounds nuw %struct.x509_st, ptr %109, i32 0, i32 16
  %111 = load ptr, ptr %110, align 8, !tbaa !43
  %112 = call ptr @ossl_check_const_GENERAL_NAME_sk_type(ptr noundef %111)
  %113 = load i32, ptr %7, align 4, !tbaa !18
  %114 = call ptr @OPENSSL_sk_value(ptr noundef %112, i32 noundef %113)
  store ptr %114, ptr %14, align 8, !tbaa !72
  %115 = load ptr, ptr %14, align 8, !tbaa !72
  %116 = load ptr, ptr %5, align 8, !tbaa !14
  %117 = call i32 @nc_match(ptr noundef %115, ptr noundef %116)
  store i32 %117, ptr %6, align 4, !tbaa !18
  %118 = load i32, ptr %6, align 4, !tbaa !18
  %119 = icmp ne i32 %118, 0
  br i1 %119, label %120, label %122

120:                                              ; preds = %108
  %121 = load i32, ptr %6, align 4, !tbaa !18
  store i32 %121, ptr %3, align 4
  store i32 1, ptr %11, align 4
  br label %123

122:                                              ; preds = %108
  store i32 0, ptr %11, align 4
  br label %123

123:                                              ; preds = %122, %120
  call void @llvm.lifetime.end.p0(i64 8, ptr %14) #6
  %124 = load i32, ptr %11, align 4
  switch i32 %124, label %130 [
    i32 0, label %125
  ]

125:                                              ; preds = %123
  br label %126

126:                                              ; preds = %125
  %127 = load i32, ptr %7, align 4, !tbaa !18
  %128 = add nsw i32 %127, 1
  store i32 %128, ptr %7, align 4, !tbaa !18
  br label %100, !llvm.loop !73

129:                                              ; preds = %100
  store i32 0, ptr %3, align 4
  store i32 1, ptr %11, align 4
  br label %130

130:                                              ; preds = %129, %123, %96, %47
  call void @llvm.lifetime.end.p0(i64 8, ptr %10) #6
  call void @llvm.lifetime.end.p0(i64 4, ptr %9) #6
  call void @llvm.lifetime.end.p0(i64 4, ptr %8) #6
  call void @llvm.lifetime.end.p0(i64 4, ptr %7) #6
  call void @llvm.lifetime.end.p0(i64 4, ptr %6) #6
  %131 = load i32, ptr %3, align 4
  ret i32 %131
}