; Function Attrs: nounwind uwtable
define range(i32 0, 54) i32 @NAME_CONSTRAINTS_check(ptr noundef %0, ptr noundef readonly captures(none) %1) local_unnamed_addr #1 {
  %3 = alloca %struct.GENERAL_NAME_st, align 8
  %4 = tail call ptr @X509_get_subject_name(ptr noundef %0) #9
  %5 = tail call i32 @X509_NAME_entry_count(ptr noundef %4) #9
  %6 = getelementptr inbounds nuw i8, ptr %0, i64 280
  %7 = load ptr, ptr %6, align 8, !tbaa !22
  %8 = tail call i32 @OPENSSL_sk_num(ptr noundef %7) #9
  %spec.store.select.i = tail call i32 @llvm.smax.i32(i32 %5, i32 0)
  %spec.store.select1.i = tail call i32 @llvm.smax.i32(i32 %8, i32 0)
  %9 = tail call { i32, i1 } @llvm.sadd.with.overflow.i32(i32 %spec.store.select.i, i32 %spec.store.select1.i)
  %10 = extractvalue { i32, i1 } %9, 1
  %11 = extractvalue { i32, i1 } %9, 0
  br i1 %10, label %.loopexit, label %12

12:                                               ; preds = %2
  %13 = load ptr, ptr %1, align 8, !tbaa !19
  %14 = tail call i32 @OPENSSL_sk_num(ptr noundef %13) #9
  %15 = getelementptr inbounds nuw i8, ptr %1, i64 8
  %16 = load ptr, ptr %15, align 8, !tbaa !21
  %17 = tail call i32 @OPENSSL_sk_num(ptr noundef %16) #9
  %spec.store.select.i47 = tail call i32 @llvm.smax.i32(i32 %14, i32 0)
  %spec.store.select1.i48 = tail call i32 @llvm.smax.i32(i32 %17, i32 0)
  %18 = tail call { i32, i1 } @llvm.sadd.with.overflow.i32(i32 %spec.store.select.i47, i32 %spec.store.select1.i48)
  %19 = extractvalue { i32, i1 } %18, 1
  %20 = extractvalue { i32, i1 } %18, 0
  br i1 %19, label %.loopexit, label %21

21:                                               ; preds = %12
  %22 = icmp sgt i32 %11, 0
  br i1 %22, label %23, label %26

23:                                               ; preds = %21
  %24 = udiv i32 1048576, %11
  %25 = icmp sgt i32 %20, %24
  br i1 %25, label %.loopexit, label %26

26:                                               ; preds = %23, %21
  %27 = tail call i32 @X509_NAME_entry_count(ptr noundef %4) #9
  %28 = icmp sgt i32 %27, 0
  br i1 %28, label %29, label %44

29:                                               ; preds = %26
  call void @llvm.lifetime.start.p0(i64 16, ptr nonnull %3) #9
  store i32 4, ptr %3, align 8, !tbaa !49
  %30 = getelementptr inbounds nuw i8, ptr %3, i64 8
  store ptr %4, ptr %30, align 8, !tbaa !11
  %31 = call fastcc i32 @nc_match(ptr noundef nonnull %3, ptr noundef nonnull %1)
  %.not43 = icmp eq i32 %31, 0
  br i1 %.not43, label %32, label %.thread59

32:                                               ; preds = %29
  store i32 1, ptr %3, align 8, !tbaa !49
  br label %33

33:                                               ; preds = %41, %32
  %.035 = phi i32 [ -1, %32 ], [ %34, %41 ]
  %34 = tail call i32 @X509_NAME_get_index_by_NID(ptr noundef %4, i32 noundef 48, i32 noundef %.035) #9
  %35 = icmp eq i32 %34, -1
  br i1 %35, label %43, label %36

36:                                               ; preds = %33
  %37 = tail call ptr @X509_NAME_get_entry(ptr noundef %4, i32 noundef %34) #9
  %38 = tail call ptr @X509_NAME_ENTRY_get_data(ptr noundef %37) #9
  store ptr %38, ptr %30, align 8, !tbaa !11
  %39 = getelementptr inbounds nuw i8, ptr %38, i64 4
  %40 = load i32, ptr %39, align 4, !tbaa !51
  %.not44 = icmp eq i32 %40, 22
  br i1 %.not44, label %41, label %.thread59

41:                                               ; preds = %36
  %42 = call fastcc i32 @nc_match(ptr noundef nonnull %3, ptr noundef nonnull %1)
  %.not45 = icmp eq i32 %42, 0
  br i1 %.not45, label %33, label %.thread59

.thread59:                                        ; preds = %36, %41, %29
  %.2.ph = phi i32 [ %31, %29 ], [ 53, %36 ], [ %42, %41 ]
  call void @llvm.lifetime.end.p0(i64 16, ptr nonnull %3) #9
  br label %.loopexit

43:                                               ; preds = %33
  call void @llvm.lifetime.end.p0(i64 16, ptr nonnull %3) #9
  br label %44

44:                                               ; preds = %43, %26
  %45 = load ptr, ptr %6, align 8, !tbaa !22
  %46 = tail call i32 @OPENSSL_sk_num(ptr noundef %45) #9
  %47 = icmp sgt i32 %46, 0
  br i1 %47, label %.lr.ph, label %.loopexit

48:                                               ; preds = %.lr.ph
  %49 = add nuw nsw i32 %.13663, 1
  %50 = load ptr, ptr %6, align 8, !tbaa !22
  %51 = tail call i32 @OPENSSL_sk_num(ptr noundef %50) #9
  %52 = icmp slt i32 %49, %51
  br i1 %52, label %.lr.ph, label %.loopexit, !llvm.loop !52

.lr.ph:                                           ; preds = %44, %48
  %.13663 = phi i32 [ %49, %48 ], [ 0, %44 ]
  %53 = load ptr, ptr %6, align 8, !tbaa !22
  %54 = tail call ptr @OPENSSL_sk_value(ptr noundef %53, i32 noundef %.13663) #9
  %55 = tail call fastcc i32 @nc_match(ptr noundef %54, ptr noundef nonnull %1)
  %.not46 = icmp eq i32 %55, 0
  br i1 %.not46, label %48, label %.loopexit

.loopexit:                                        ; preds = %.lr.ph, %48, %44, %.thread59, %2, %12, %23
  %.0 = phi i32 [ 1, %23 ], [ 1, %12 ], [ 1, %2 ], [ %.2.ph, %.thread59 ], [ 0, %44 ], [ %55, %.lr.ph ], [ 0, %48 ]
  ret i32 %.0
}